target datalayout = "e-m:e-p270:32:32-p271:32:32-p272:64:64-i64:64-i128:128-f80:128-n8:16:32:64-S128"
target triple = "x86_64-pc-linux-gnu"

%struct.FormatState = type { ptr, ptr, ptr, i32 }

@strfmt_map = internal constant [56 x i8] c"\05\00\00\00\15%5\00\00\00\00\00\00\00\00\00\00\00\00\00\00\00\00\14\00\00\00\00\00\00\00\00\05\00\07\03\15%5\00\03\00\00\00\00\00$\08\16\00\06\00\04\00\00\14", align 16

; Function Attrs: nounwind uwtable
define hidden i32 @lj_strfmt_parse(ptr noundef %0) #0 {
  %2 = alloca i32, align 4
  %3 = alloca ptr, align 8
  %4 = alloca ptr, align 8
  %5 = alloca ptr, align 8
  %6 = alloca i32, align 4
  %7 = alloca i32, align 4
  %8 = alloca i32, align 4
  %9 = alloca i32, align 4
  %10 = alloca i32, align 4
  %11 = alloca i32, align 4
  store ptr %0, ptr %3, align 8, !tbaa !4
  call void @llvm.lifetime.start.p0(i64 8, ptr %4) #10
  %12 = load ptr, ptr %3, align 8, !tbaa !4
  %13 = getelementptr inbounds nuw %struct.FormatState, ptr %12, i32 0, i32 0
  %14 = load ptr, ptr %13, align 8, !tbaa !9
  store ptr %14, ptr %4, align 8, !tbaa !13
  call void @llvm.lifetime.start.p0(i64 8, ptr %5) #10
  %15 = load ptr, ptr %3, align 8, !tbaa !4
  %16 = getelementptr inbounds nuw %struct.FormatState, ptr %15, i32 0, i32 1
  %17 = load ptr, ptr %16, align 8, !tbaa !14
  store ptr %17, ptr %5, align 8, !tbaa !13
  %18 = load ptr, ptr %4, align 8, !tbaa !13
  %19 = load ptr, ptr %3, align 8, !tbaa !4
  %20 = getelementptr inbounds nuw %struct.FormatState, ptr %19, i32 0, i32 2
  store ptr %18, ptr %20, align 8, !tbaa !15
  br label %21

21:                                               ; preds = %243, %1
  %22 = load ptr, ptr %4, align 8, !tbaa !13
  %23 = load ptr, ptr %5, align 8, !tbaa !13
  %24 = icmp ult ptr %22, %23
  br i1 %24, label %25, label %246

25:                                               ; preds = %21
  %26 = load ptr, ptr %4, align 8, !tbaa !13
  %27 = load i8, ptr %26, align 1, !tbaa !16
  %28 = zext i8 %27 to i32
  %29 = icmp eq i32 %28, 37
  br i1 %29, label %30, label %242

30:                                               ; preds = %25
  %31 = load ptr, ptr %4, align 8, !tbaa !13
  %32 = getelementptr inbounds i8, ptr %31, i64 1
  %33 = load i8, ptr %32, align 1, !tbaa !16
  %34 = zext i8 %33 to i32
  %35 = icmp eq i32 %34, 37
  br i1 %35, label %36, label %42

36:                                               ; preds = %30
  %37 = load ptr, ptr %4, align 8, !tbaa !13
  %38 = getelementptr inbounds nuw i8, ptr %37, i32 1
  store ptr %38, ptr %4, align 8, !tbaa !13
  %39 = getelementptr inbounds i8, ptr %38, i64 1
  %40 = load ptr, ptr %3, align 8, !tbaa !4
  %41 = getelementptr inbounds nuw %struct.FormatState, ptr %40, i32 0, i32 0
  store ptr %39, ptr %41, align 8, !tbaa !9
  br label %250

42:                                               ; preds = %30
  call void @llvm.lifetime.start.p0(i64 4, ptr %6) #10
  store i32 0, ptr %6, align 4, !tbaa !17
  call void @llvm.lifetime.start.p0(i64 4, ptr %7) #10
  %43 = load ptr, ptr %4, align 8, !tbaa !13
  %44 = load ptr, ptr %3, align 8, !tbaa !4
  %45 = getelementptr inbounds nuw %struct.FormatState, ptr %44, i32 0, i32 2
  %46 = load ptr, ptr %45, align 8, !tbaa !15
  %47 = icmp ne ptr %43, %46
  br i1 %47, label %48, label %49

48:                                               ; preds = %42
  store i32 2, ptr %8, align 4
  br label %240

49:                                               ; preds = %42
  %50 = load ptr, ptr %4, align 8, !tbaa !13
  %51 = getelementptr inbounds nuw i8, ptr %50, i32 1
  store ptr %51, ptr %4, align 8, !tbaa !13
  br label %52

52:                                               ; preds = %104, %49
  %53 = load ptr, ptr %4, align 8, !tbaa !13
  %54 = load i8, ptr %53, align 1, !tbaa !16
  %55 = zext i8 %54 to i32
  %56 = sub i32 %55, 32
  %57 = icmp ule i32 %56, 16
  br i1 %57, label %58, label %107

58:                                               ; preds = %52
  %59 = load ptr, ptr %4, align 8, !tbaa !13
  %60 = load i8, ptr %59, align 1, !tbaa !16
  %61 = zext i8 %60 to i32
  %62 = icmp eq i32 %61, 45
  br i1 %62, label %63, label %66

63:                                               ; preds = %58
  %64 = load i32, ptr %6, align 4, !tbaa !17
  %65 = or i32 %64, 256
  store i32 %65, ptr %6, align 4, !tbaa !17
  br label %103

66:                                               ; preds = %58
  %67 = load ptr, ptr %4, align 8, !tbaa !13
  %68 = load i8, ptr %67, align 1, !tbaa !16
  %69 = zext i8 %68 to i32
  %70 = icmp eq i32 %69, 43
  br i1 %70, label %71, label %74

71:                                               ; preds = %66
  %72 = load i32, ptr %6, align 4, !tbaa !17
  %73 = or i32 %72, 512
  store i32 %73, ptr %6, align 4, !tbaa !17
  br label %102

74:                                               ; preds = %66
  %75 = load ptr, ptr %4, align 8, !tbaa !13
  %76 = load i8, ptr %75, align 1, !tbaa !16
  %77 = zext i8 %76 to i32
  %78 = icmp eq i32 %77, 48
  br i1 %78, label %79, label %82

79:                                               ; preds = %74
  %80 = load i32, ptr %6, align 4, !tbaa !17
  %81 = or i32 %80, 1024
  store i32 %81, ptr %6, align 4, !tbaa !17
  br label %101

82:                                               ; preds = %74
  %83 = load ptr, ptr %4, align 8, !tbaa !13
  %84 = load i8, ptr %83, align 1, !tbaa !16
  %85 = zext i8 %84 to i32
  %86 = icmp eq i32 %85, 32
  br i1 %86, label %87, label %90

87:                                               ; preds = %82
  %88 = load i32, ptr %6, align 4, !tbaa !17
  %89 = or i32 %88, 2048
  store i32 %89, ptr %6, align 4, !tbaa !17
  br label %100

90:                                               ; preds = %82
  %91 = load ptr, ptr %4, align 8, !tbaa !13
  %92 = load i8, ptr %91, align 1, !tbaa !16
  %93 = zext i8 %92 to i32
  %94 = icmp eq i32 %93, 35
  br i1 %94, label %95, label %98

95:                                               ; preds = %90
  %96 = load i32, ptr %6, align 4, !tbaa !17
  %97 = or i32 %96, 4096
  store i32 %97, ptr %6, align 4, !tbaa !17
  br label %99

98:                                               ; preds = %90
  br label %107

99:                                               ; preds = %95
  br label %100

100:                                              ; preds = %99, %87
  br label %101

101:                                              ; preds = %100, %79
  br label %102

102:                                              ; preds = %101, %71
  br label %103

103:                                              ; preds = %102, %63
  br label %104

104:                                              ; preds = %103
  %105 = load ptr, ptr %4, align 8, !tbaa !13
  %106 = getelementptr inbounds nuw i8, ptr %105, i32 1
  store ptr %106, ptr %4, align 8, !tbaa !13
  br label %52, !llvm.loop !18

107:                                              ; preds = %98, %52
  %108 = load ptr, ptr %4, align 8, !tbaa !13
  %109 = load i8, ptr %108, align 1, !tbaa !16
  %110 = zext i8 %109 to i32
  %111 = sub i32 %110, 48
  %112 = icmp ult i32 %111, 10
  br i1 %112, label %113, label %138

113:                                              ; preds = %107
  call void @llvm.lifetime.start.p0(i64 4, ptr %9) #10
  %114 = load ptr, ptr %4, align 8, !tbaa !13
  %115 = getelementptr inbounds nuw i8, ptr %114, i32 1
  store ptr %115, ptr %4, align 8, !tbaa !13
  %116 = load i8, ptr %114, align 1, !tbaa !16
  %117 = zext i8 %116 to i32
  %118 = sub i32 %117, 48
  store i32 %118, ptr %9, align 4, !tbaa !17
  %119 = load ptr, ptr %4, align 8, !tbaa !13
  %120 = load i8, ptr %119, align 1, !tbaa !16
  %121 = zext i8 %120 to i32
  %122 = sub i32 %121, 48
  %123 = icmp ult i32 %122, 10
  br i1 %123, label %124, label %133

124:                                              ; preds = %113
  %125 = load ptr, ptr %4, align 8, !tbaa !13
  %126 = getelementptr inbounds nuw i8, ptr %125, i32 1
  store ptr %126, ptr %4, align 8, !tbaa !13
  %127 = load i8, ptr %125, align 1, !tbaa !16
  %128 = zext i8 %127 to i32
  %129 = sub i32 %128, 48
  %130 = load i32, ptr %9, align 4, !tbaa !17
  %131 = mul i32 %130, 10
  %132 = add i32 %129, %131
  store i32 %132, ptr %9, align 4, !tbaa !17
  br label %133

133:                                              ; preds = %124, %113
  %134 = load i32, ptr %9, align 4, !tbaa !17
  %135 = shl i32 %134, 16
  %136 = load i32, ptr %6, align 4, !tbaa !17
  %137 = or i32 %136, %135
  store i32 %137, ptr %6, align 4, !tbaa !17
  call void @llvm.lifetime.end.p0(i64 4, ptr %9) #10
  br label %138

138:                                              ; preds = %133, %107
  %139 = load ptr, ptr %4, align 8, !tbaa !13
  %140 = load i8, ptr %139, align 1, !tbaa !16
  %141 = zext i8 %140 to i32
  %142 = icmp eq i32 %141, 46
  br i1 %142, label %143, label %178

143:                                              ; preds = %138
  call void @llvm.lifetime.start.p0(i64 4, ptr %10) #10
  store i32 0, ptr %10, align 4, !tbaa !17
  %144 = load ptr, ptr %4, align 8, !tbaa !13
  %145 = getelementptr inbounds nuw i8, ptr %144, i32 1
  store ptr %145, ptr %4, align 8, !tbaa !13
  %146 = load ptr, ptr %4, align 8, !tbaa !13
  %147 = load i8, ptr %146, align 1, !tbaa !16
  %148 = zext i8 %147 to i32
  %149 = sub i32 %148, 48
  %150 = icmp ult i32 %149, 10
  br i1 %150, label %151, label %172

151:                                              ; preds = %143
  %152 = load ptr, ptr %4, align 8, !tbaa !13
  %153 = getelementptr inbounds nuw i8, ptr %152, i32 1
  store ptr %153, ptr %4, align 8, !tbaa !13
  %154 = load i8, ptr %152, align 1, !tbaa !16
  %155 = zext i8 %154 to i32
  %156 = sub i32 %155, 48
  store i32 %156, ptr %10, align 4, !tbaa !17
  %157 = load ptr, ptr %4, align 8, !tbaa !13
  %158 = load i8, ptr %157, align 1, !tbaa !16
  %159 = zext i8 %158 to i32
  %160 = sub i32 %159, 48
  %161 = icmp ult i32 %160, 10
  br i1 %161, label %162, label %171

162:                                              ; preds = %151
  %163 = load ptr, ptr %4, align 8, !tbaa !13
  %164 = getelementptr inbounds nuw i8, ptr %163, i32 1
  store ptr %164, ptr %4, align 8, !tbaa !13
  %165 = load i8, ptr %163, align 1, !tbaa !16
  %166 = zext i8 %165 to i32
  %167 = sub i32 %166, 48
  %168 = load i32, ptr %10, align 4, !tbaa !17
  %169 = mul i32 %168, 10
  %170 = add i32 %167, %169
  store i32 %170, ptr %10, align 4, !tbaa !17
  br label %171

171:                                              ; preds = %162, %151
  br label %172

172:                                              ; preds = %171, %143
  %173 = load i32, ptr %10, align 4, !tbaa !17
  %174 = add i32 %173, 1
  %175 = shl i32 %174, 24
  %176 = load i32, ptr %6, align 4, !tbaa !17
  %177 = or i32 %176, %175
  store i32 %177, ptr %6, align 4, !tbaa !17
  call void @llvm.lifetime.end.p0(i64 4, ptr %10) #10
  br label %178

178:                                              ; preds = %172, %138
  %179 = load ptr, ptr %4, align 8, !tbaa !13
  %180 = load i8, ptr %179, align 1, !tbaa !16
  %181 = zext i8 %180 to i32
  %182 = sub i32 %181, 65
  store i32 %182, ptr %7, align 4, !tbaa !17
  %183 = load i32, ptr %7, align 4, !tbaa !17
  %184 = icmp ule i32 %183, 55
  %185 = xor i1 %184, true
  %186 = xor i1 %185, true
  %187 = zext i1 %186 to i32
  %188 = sext i32 %187 to i64
  %189 = call i64 @llvm.expect.i64(i64 %188, i64 1)
  %190 = icmp ne i64 %189, 0
  br i1 %190, label %191, label %216

191:                                              ; preds = %178
  call void @llvm.lifetime.start.p0(i64 4, ptr %11) #10
  %192 = load i32, ptr %7, align 4, !tbaa !17
  %193 = zext i32 %192 to i64
  %194 = getelementptr inbounds nuw [56 x i8], ptr @strfmt_map, i64 0, i64 %193
  %195 = load i8, ptr %194, align 1, !tbaa !16
  %196 = zext i8 %195 to i32
  store i32 %196, ptr %11, align 4, !tbaa !17
  %197 = load i32, ptr %11, align 4, !tbaa !17
  %198 = icmp ne i32 %197, 0
  br i1 %198, label %199, label %212

199:                                              ; preds = %191
  %200 = load ptr, ptr %4, align 8, !tbaa !13
  %201 = getelementptr inbounds i8, ptr %200, i64 1
  %202 = load ptr, ptr %3, align 8, !tbaa !4
  %203 = getelementptr inbounds nuw %struct.FormatState, ptr %202, i32 0, i32 0
  store ptr %201, ptr %203, align 8, !tbaa !9
  %204 = load i32, ptr %6, align 4, !tbaa !17
  %205 = load i32, ptr %11, align 4, !tbaa !17
  %206 = or i32 %204, %205
  %207 = load i32, ptr %7, align 4, !tbaa !17
  %208 = and i32 %207, 32
  %209 = icmp ne i32 %208, 0
  %210 = select i1 %209, i32 0, i32 8192
  %211 = or i32 %206, %210
  store i32 %211, ptr %2, align 4
  store i32 1, ptr %8, align 4
  br label %213

212:                                              ; preds = %191
  store i32 0, ptr %8, align 4
  br label %213

213:                                              ; preds = %212, %199
  call void @llvm.lifetime.end.p0(i64 4, ptr %11) #10
  %214 = load i32, ptr %8, align 4
  switch i32 %214, label %240 [
    i32 0, label %215
  ]

215:                                              ; preds = %213
  br label %216

216:                                              ; preds = %215, %178
  %217 = load ptr, ptr %4, align 8, !tbaa !13
  %218 = load i8, ptr %217, align 1, !tbaa !16
  %219 = zext i8 %218 to i32
  %220 = icmp sge i32 %219, 32
  br i1 %220, label %221, label %224

221:                                              ; preds = %216
  %222 = load ptr, ptr %4, align 8, !tbaa !13
  %223 = getelementptr inbounds nuw i8, ptr %222, i32 1
  store ptr %223, ptr %4, align 8, !tbaa !13
  br label %224

224:                                              ; preds = %221, %216
  %225 = load ptr, ptr %4, align 8, !tbaa !13
  %226 = load ptr, ptr %3, align 8, !tbaa !4
  %227 = getelementptr inbounds nuw %struct.FormatState, ptr %226, i32 0, i32 2
  %228 = load ptr, ptr %227, align 8, !tbaa !15
  %229 = ptrtoint ptr %225 to i64
  %230 = ptrtoint ptr %228 to i64
  %231 = sub i64 %229, %230
  %232 = trunc i64 %231 to i32
  %233 = load ptr, ptr %3, align 8, !tbaa !4
  %234 = getelementptr inbounds nuw %struct.FormatState, ptr %233, i32 0, i32 3
  store i32 %232, ptr %234, align 8, !tbaa !20
  %235 = load ptr, ptr %3, align 8, !tbaa !4
  %236 = getelementptr inbounds nuw %struct.FormatState, ptr %235, i32 0, i32 1
  %237 = load ptr, ptr %236, align 8, !tbaa !14
  %238 = load ptr, ptr %3, align 8, !tbaa !4
  %239 = getelementptr inbounds nuw %struct.FormatState, ptr %238, i32 0, i32 0
  store ptr %237, ptr %239, align 8, !tbaa !9
  store i32 1, ptr %2, align 4
  store i32 1, ptr %8, align 4
  br label %240

240:                                              ; preds = %224, %213, %48
  call void @llvm.lifetime.end.p0(i64 4, ptr %7) #10
  call void @llvm.lifetime.end.p0(i64 4, ptr %6) #10
  %241 = load i32, ptr %8, align 4
  switch i32 %241, label %266 [
    i32 2, label %246
  ]

242:                                              ; preds = %25
  br label %243

243:                                              ; preds = %242
  %244 = load ptr, ptr %4, align 8, !tbaa !13
  %245 = getelementptr inbounds nuw i8, ptr %244, i32 1
  store ptr %245, ptr %4, align 8, !tbaa !13
  br label %21, !llvm.loop !21

246:                                              ; preds = %240, %21
  %247 = load ptr, ptr %4, align 8, !tbaa !13
  %248 = load ptr, ptr %3, align 8, !tbaa !4
  %249 = getelementptr inbounds nuw %struct.FormatState, ptr %248, i32 0, i32 0
  store ptr %247, ptr %249, align 8, !tbaa !9
  br label %250

250:                                              ; preds = %246, %36
  %251 = load ptr, ptr %4, align 8, !tbaa !13
  %252 = load ptr, ptr %3, align 8, !tbaa !4
  %253 = getelementptr inbounds nuw %struct.FormatState, ptr %252, i32 0, i32 2
  %254 = load ptr, ptr %253, align 8, !tbaa !15
  %255 = ptrtoint ptr %251 to i64
  %256 = ptrtoint ptr %254 to i64
  %257 = sub i64 %255, %256
  %258 = trunc i64 %257 to i32
  %259 = load ptr, ptr %3, align 8, !tbaa !4
  %260 = getelementptr inbounds nuw %struct.FormatState, ptr %259, i32 0, i32 3
  store i32 %258, ptr %260, align 8, !tbaa !20
  %261 = load ptr, ptr %3, align 8, !tbaa !4
  %262 = getelementptr inbounds nuw %struct.FormatState, ptr %261, i32 0, i32 3
  %263 = load i32, ptr %262, align 8, !tbaa !20
  %264 = icmp ne i32 %263, 0
  %265 = select i1 %264, i32 2, i32 0
  store i32 %265, ptr %2, align 4
  store i32 1, ptr %8, align 4
  br label %266

266:                                              ; preds = %250, %240
  call void @llvm.lifetime.end.p0(i64 8, ptr %5) #10
  call void @llvm.lifetime.end.p0(i64 8, ptr %4) #10
  %267 = load i32, ptr %2, align 4
  ret i32 %267
}