; Function Attrs: nofree norecurse nosync nounwind memory(read, argmem: readwrite, inaccessiblemem: none) uwtable
define hidden i32 @lj_strfmt_parse(ptr noundef captures(none) initializes((16, 24)) %0) local_unnamed_addr #0 {
  %2 = load ptr, ptr %0, align 8, !tbaa !4
  %3 = ptrtoint ptr %2 to i64
  %4 = getelementptr inbounds nuw i8, ptr %0, i64 8
  %5 = load ptr, ptr %4, align 8, !tbaa !11
  %6 = getelementptr inbounds nuw i8, ptr %0, i64 16
  store ptr %2, ptr %6, align 8, !tbaa !12
  %7 = icmp ult ptr %2, %5
  br i1 %7, label %.lr.ph.preheader, label %.thread88

.lr.ph.preheader:                                 ; preds = %1
  %8 = ptrtoint ptr %5 to i64
  %9 = sub i64 %8, %3
  %scevgep = getelementptr i8, ptr %2, i64 %9
  br label %.lr.ph

.lr.ph:                                           ; preds = %.lr.ph.preheader, %90
  %.07192 = phi ptr [ %12, %90 ], [ %2, %.lr.ph.preheader ]
  %10 = load i8, ptr %.07192, align 1, !tbaa !13
  %11 = icmp eq i8 %10, 37
  %12 = getelementptr inbounds nuw i8, ptr %.07192, i64 1
  br i1 %11, label %13, label %90

13:                                               ; preds = %.lr.ph
  %14 = load i8, ptr %12, align 1, !tbaa !13
  %15 = icmp eq i8 %14, 37
  br i1 %15, label %16, label %18

16:                                               ; preds = %13
  %17 = getelementptr inbounds nuw i8, ptr %.07192, i64 2
  br label %.thread88

18:                                               ; preds = %13
  %.not.not = icmp eq ptr %.07192, %2
  br i1 %.not.not, label %.preheader, label %.thread88

.preheader:                                       ; preds = %18
  %19 = add i8 %14, -32
  %20 = icmp ult i8 %19, 17
  br i1 %20, label %.lr.ph95, label %._crit_edge

.lr.ph95:                                         ; preds = %.preheader, %26
  %.494 = phi ptr [ %28, %26 ], [ %12, %.preheader ]
  %.07493 = phi i32 [ %27, %26 ], [ 0, %.preheader ]
  %21 = phi i8 [ %.pr, %26 ], [ %14, %.preheader ]
  switch i8 %21, label %._crit_edge [
    i8 45, label %26
    i8 43, label %22
    i8 48, label %23
    i8 32, label %24
    i8 35, label %25
  ]

22:                                               ; preds = %.lr.ph95
  br label %26

23:                                               ; preds = %.lr.ph95
  br label %26

24:                                               ; preds = %.lr.ph95
  br label %26

25:                                               ; preds = %.lr.ph95
  br label %26

26:                                               ; preds = %.lr.ph95, %23, %25, %24, %22
  %.sink = phi i32 [ 1024, %23 ], [ 4096, %25 ], [ 2048, %24 ], [ 512, %22 ], [ 256, %.lr.ph95 ]
  %27 = or i32 %.07493, %.sink
  %28 = getelementptr inbounds nuw i8, ptr %.494, i64 1
  %.pr = load i8, ptr %28, align 1, !tbaa !13
  %29 = add i8 %.pr, -32
  %30 = icmp ult i8 %29, 17
  br i1 %30, label %.lr.ph95, label %._crit_edge, !llvm.loop !14

._crit_edge:                                      ; preds = %26, %.lr.ph95, %.preheader
  %.lcssa = phi i8 [ %14, %.preheader ], [ %21, %.lr.ph95 ], [ %.pr, %26 ]
  %.074.lcssa = phi i32 [ 0, %.preheader ], [ %.07493, %.lr.ph95 ], [ %27, %26 ]
  %.4.lcssa = phi ptr [ %12, %.preheader ], [ %.494, %.lr.ph95 ], [ %28, %26 ]
  %31 = zext i8 %.lcssa to i32
  %32 = add nsw i32 %31, -48
  %33 = icmp ult i32 %32, 10
  br i1 %33, label %34, label %45

34:                                               ; preds = %._crit_edge
  %35 = getelementptr inbounds nuw i8, ptr %.4.lcssa, i64 1
  %36 = load i8, ptr %35, align 1, !tbaa !13
  %37 = zext i8 %36 to i32
  %38 = add nsw i32 %37, -48
  %39 = icmp ult i32 %38, 10
  %40 = getelementptr inbounds nuw i8, ptr %.4.lcssa, i64 2
  %41 = mul nuw nsw i32 %32, 10
  %42 = add nuw nsw i32 %38, %41
  %.6 = select i1 %39, ptr %40, ptr %35
  %.068 = select i1 %39, i32 %42, i32 %32
  %43 = shl nuw nsw i32 %.068, 16
  %44 = or i32 %43, %.074.lcssa
  %.pre = load i8, ptr %.6, align 1, !tbaa !13
  br label %45

45:                                               ; preds = %34, %._crit_edge
  %46 = phi i8 [ %.pre, %34 ], [ %.lcssa, %._crit_edge ]
  %.276 = phi i32 [ %44, %34 ], [ %.074.lcssa, %._crit_edge ]
  %.5 = phi ptr [ %.6, %34 ], [ %.4.lcssa, %._crit_edge ]
  %47 = icmp eq i8 %46, 46
  br i1 %47, label %48, label %68

48:                                               ; preds = %45
  %49 = getelementptr inbounds nuw i8, ptr %.5, i64 1
  %50 = load i8, ptr %49, align 1, !tbaa !13
  %51 = zext i8 %50 to i32
  %52 = add nsw i32 %51, -48
  %53 = icmp ult i32 %52, 10
  br i1 %53, label %54, label %64

54:                                               ; preds = %48
  %55 = getelementptr inbounds nuw i8, ptr %.5, i64 2
  %56 = load i8, ptr %55, align 1, !tbaa !13
  %57 = zext i8 %56 to i32
  %58 = add nsw i32 %57, -48
  %59 = icmp ult i32 %58, 10
  br i1 %59, label %60, label %64

60:                                               ; preds = %54
  %61 = getelementptr inbounds nuw i8, ptr %.5, i64 3
  %62 = mul nuw nsw i32 %52, 10
  %63 = add nuw nsw i32 %58, %62
  %.pre105.pre = load i8, ptr %61, align 1, !tbaa !13
  br label %64

64:                                               ; preds = %54, %60, %48
  %.pre105 = phi i8 [ %.pre105.pre, %60 ], [ %56, %54 ], [ %50, %48 ]
  %.8 = phi ptr [ %61, %60 ], [ %55, %54 ], [ %49, %48 ]
  %.067 = phi i32 [ %63, %60 ], [ %52, %54 ], [ 0, %48 ]
  %65 = shl nuw nsw i32 %.067, 24
  %66 = add nuw nsw i32 %65, 16777216
  %67 = or i32 %66, %.276
  br label %68

68:                                               ; preds = %64, %45
  %69 = phi i8 [ %.pre105, %64 ], [ %46, %45 ]
  %.377 = phi i32 [ %67, %64 ], [ %.276, %45 ]
  %.7 = phi ptr [ %.8, %64 ], [ %.5, %45 ]
  %70 = zext i8 %69 to i32
  %71 = add nsw i32 %70, -65
  %72 = icmp ult i32 %71, 56
  br i1 %72, label %73, label %84, !prof !16

73:                                               ; preds = %68
  %74 = zext nneg i32 %71 to i64
  %75 = shl nuw nsw i64 1, %74
  %76 = and i64 %75, 29905079884578702
  %.not85.not.not = icmp eq i64 %76, 0
  br i1 %.not85.not.not, label %.thread, label %84

.thread:                                          ; preds = %73
  %77 = getelementptr inbounds nuw [56 x i8], ptr @strfmt_map, i64 0, i64 %74
  %78 = load i8, ptr %77, align 1, !tbaa !13
  %79 = zext i8 %78 to i32
  %80 = getelementptr inbounds nuw i8, ptr %.7, i64 1
  store ptr %80, ptr %0, align 8, !tbaa !4
  %.not86 = icmp samesign ult i32 %71, 32
  %81 = select i1 %.not86, i32 8192, i32 0
  %82 = or i32 %81, %.377
  %83 = or i32 %82, %79
  br label %96

84:                                               ; preds = %73, %68
  %85 = icmp ugt i8 %69, 31
  %spec.select.idx = zext i1 %85 to i64
  %spec.select = getelementptr inbounds nuw i8, ptr %.7, i64 %spec.select.idx
  %86 = ptrtoint ptr %spec.select to i64
  %87 = sub i64 %86, %3
  %88 = trunc i64 %87 to i32
  %89 = getelementptr inbounds nuw i8, ptr %0, i64 24
  store i32 %88, ptr %89, align 8, !tbaa !17
  store ptr %5, ptr %0, align 8, !tbaa !4
  br label %96

90:                                               ; preds = %.lr.ph
  %exitcond.not = icmp eq ptr %12, %5
  br i1 %exitcond.not, label %.thread88, label %.lr.ph, !llvm.loop !18

.thread88:                                        ; preds = %90, %1, %18, %16
  %storemerge = phi ptr [ %17, %16 ], [ %.07192, %18 ], [ %2, %1 ], [ %scevgep, %90 ]
  %.273 = phi ptr [ %12, %16 ], [ %.07192, %18 ], [ %2, %1 ], [ %scevgep, %90 ]
  store ptr %storemerge, ptr %0, align 8, !tbaa !4
  %91 = ptrtoint ptr %.273 to i64
  %92 = sub i64 %91, %3
  %93 = trunc i64 %92 to i32
  %94 = getelementptr inbounds nuw i8, ptr %0, i64 24
  store i32 %93, ptr %94, align 8, !tbaa !17
  %.not = icmp eq i32 %93, 0
  %95 = select i1 %.not, i32 0, i32 2
  br label %96

96:                                               ; preds = %84, %.thread, %.thread88
  %.2 = phi i32 [ %95, %.thread88 ], [ 1, %84 ], [ %83, %.thread ]
  ret i32 %.2
}